
_codeToRam:

;soundrec.c,75 :: 		char* codeToRam(const char* ctxt){
;soundrec.c,78 :: 		for(i =0; txt[i] = ctxt[i]; i++);
	CLRF        R3 
L_codeToRam0:
	MOVLW       codeToRam_txt_L0+0
	MOVWF       R1 
	MOVLW       hi_addr(codeToRam_txt_L0+0)
	MOVWF       R2 
	MOVF        R3, 0 
	ADDWF       R1, 1 
	BTFSC       STATUS+0, 0 
	INCF        R2, 1 
	MOVF        R3, 0 
	ADDWF       FARG_codeToRam_ctxt+0, 0 
	MOVWF       TBLPTRL 
	MOVLW       0
	ADDWFC      FARG_codeToRam_ctxt+1, 0 
	MOVWF       TBLPTRH 
	MOVLW       0
	ADDWFC      FARG_codeToRam_ctxt+2, 0 
	MOVWF       TBLPTRU 
	TBLRD*+
	MOVFF       TABLAT+0, R0
	MOVFF       R1, FSR1
	MOVFF       R2, FSR1H
	MOVF        R0, 0 
	MOVWF       POSTINC1+0 
	MOVFF       R1, FSR0
	MOVFF       R2, FSR0H
	MOVF        POSTINC0+0, 1 
	BTFSC       STATUS+0, 2 
	GOTO        L_codeToRam1
	INCF        R3, 1 
	GOTO        L_codeToRam0
L_codeToRam1:
;soundrec.c,80 :: 		return txt;
	MOVLW       codeToRam_txt_L0+0
	MOVWF       R0 
	MOVLW       hi_addr(codeToRam_txt_L0+0)
	MOVWF       R1 
;soundrec.c,81 :: 		}
L_end_codeToRam:
	RETURN      0
; end of _codeToRam

_adcRead:

;soundrec.c,87 :: 		adcRead(void)
;soundrec.c,90 :: 		GO_bit = 1; // Begin conversion
	BSF         GO_bit+0, BitPos(GO_bit+0) 
;soundrec.c,91 :: 		while (!GO); // Wait for conversion completed
L_adcRead4:
;soundrec.c,93 :: 		return ADRESH;
	MOVF        ADRESH+0, 0 
	MOVWF       R0 
;soundrec.c,94 :: 		}
L_end_adcRead:
	RETURN      0
; end of _adcRead

_caidatMMC:

;soundrec.c,97 :: 		void caidatMMC()
;soundrec.c,99 :: 		UWR("Detecting MMC");
	MOVLW       ?lstr1_soundrec+0
	MOVWF       FARG_UART_Write_Text_uart_text+0 
	MOVLW       hi_addr(?lstr1_soundrec+0)
	MOVWF       FARG_UART_Write_Text_uart_text+1 
	CALL        _UART_Write_Text+0, 0
	MOVLW       13
	MOVWF       FARG_UART_Write__data+0 
	CALL        _UART_Write+0, 0
	MOVLW       10
	MOVWF       FARG_UART_Write__data+0 
	CALL        _UART_Write+0, 0
;soundrec.c,100 :: 		Delay_ms(1000);
	MOVLW       26
	MOVWF       R11, 0
	MOVLW       94
	MOVWF       R12, 0
	MOVLW       110
	MOVWF       R13, 0
L_caidatMMC5:
	DECFSZ      R13, 1, 1
	BRA         L_caidatMMC5
	DECFSZ      R12, 1, 1
	BRA         L_caidatMMC5
	DECFSZ      R11, 1, 1
	BRA         L_caidatMMC5
	NOP
;soundrec.c,102 :: 		_SPI_CLK_IDLE_LOW, _SPI_LOW_2_HIGH);
	MOVLW       2
	MOVWF       FARG_SPI1_Init_Advanced_master+0 
	CLRF        FARG_SPI1_Init_Advanced_data_sample+0 
	CLRF        FARG_SPI1_Init_Advanced_clock_idle+0 
	MOVLW       1
	MOVWF       FARG_SPI1_Init_Advanced_transmit_edge+0 
	CALL        _SPI1_Init_Advanced+0, 0
;soundrec.c,104 :: 		while (MMC_Init() != 0)
L_caidatMMC6:
	CALL        _Mmc_Init+0, 0
	MOVF        R0, 0 
	XORLW       0
	BTFSC       STATUS+0, 2 
	GOTO        L_caidatMMC7
;soundrec.c,106 :: 		}
	GOTO        L_caidatMMC6
L_caidatMMC7:
;soundrec.c,109 :: 		_SPI_CLK_IDLE_LOW, _SPI_LOW_2_HIGH);
	CLRF        FARG_SPI1_Init_Advanced_master+0 
	CLRF        FARG_SPI1_Init_Advanced_data_sample+0 
	CLRF        FARG_SPI1_Init_Advanced_clock_idle+0 
	MOVLW       1
	MOVWF       FARG_SPI1_Init_Advanced_transmit_edge+0 
	CALL        _SPI1_Init_Advanced+0, 0
;soundrec.c,110 :: 		UWR("MMC Detected!");
	MOVLW       ?lstr2_soundrec+0
	MOVWF       FARG_UART_Write_Text_uart_text+0 
	MOVLW       hi_addr(?lstr2_soundrec+0)
	MOVWF       FARG_UART_Write_Text_uart_text+1 
	CALL        _UART_Write_Text+0, 0
	MOVLW       13
	MOVWF       FARG_UART_Write__data+0 
	CALL        _UART_Write+0, 0
	MOVLW       10
	MOVWF       FARG_UART_Write__data+0 
	CALL        _UART_Write+0, 0
;soundrec.c,111 :: 		Delay_ms (1000);
	MOVLW       26
	MOVWF       R11, 0
	MOVLW       94
	MOVWF       R12, 0
	MOVLW       110
	MOVWF       R13, 0
L_caidatMMC8:
	DECFSZ      R13, 1, 1
	BRA         L_caidatMMC8
	DECFSZ      R12, 1, 1
	BRA         L_caidatMMC8
	DECFSZ      R11, 1, 1
	BRA         L_caidatMMC8
	NOP
;soundrec.c,112 :: 		}
L_end_caidatMMC:
	RETURN      0
; end of _caidatMMC

_command:

;soundrec.c,121 :: 		command(char command, uint32_t fourbyte_arg, char CRCbits)
;soundrec.c,123 :: 		spiWrite(0xff);
	MOVLW       255
	MOVWF       FARG_SPI1_Write_data_+0 
	CALL        _SPI1_Write+0, 0
;soundrec.c,124 :: 		spiWrite(0b01000000 | command);
	MOVLW       64
	IORWF       FARG_command_command+0, 0 
	MOVWF       FARG_SPI1_Write_data_+0 
	CALL        _SPI1_Write+0, 0
;soundrec.c,125 :: 		spiWrite((uint8_t) (fourbyte_arg >> 24));
	MOVF        FARG_command_fourbyte_arg+3, 0 
	MOVWF       R0 
	CLRF        R1 
	CLRF        R2 
	CLRF        R3 
	MOVF        R0, 0 
	MOVWF       FARG_SPI1_Write_data_+0 
	CALL        _SPI1_Write+0, 0
;soundrec.c,126 :: 		spiWrite((uint8_t) (fourbyte_arg >> 16));
	MOVF        FARG_command_fourbyte_arg+2, 0 
	MOVWF       R0 
	MOVF        FARG_command_fourbyte_arg+3, 0 
	MOVWF       R1 
	CLRF        R2 
	CLRF        R3 
	MOVF        R0, 0 
	MOVWF       FARG_SPI1_Write_data_+0 
	CALL        _SPI1_Write+0, 0
;soundrec.c,127 :: 		spiWrite((uint8_t) (fourbyte_arg >> 8));
	MOVF        FARG_command_fourbyte_arg+1, 0 
	MOVWF       R0 
	MOVF        FARG_command_fourbyte_arg+2, 0 
	MOVWF       R1 
	MOVF        FARG_command_fourbyte_arg+3, 0 
	MOVWF       R2 
	CLRF        R3 
	MOVF        R0, 0 
	MOVWF       FARG_SPI1_Write_data_+0 
	CALL        _SPI1_Write+0, 0
;soundrec.c,128 :: 		spiWrite((uint8_t) (fourbyte_arg));
	MOVF        FARG_command_fourbyte_arg+0, 0 
	MOVWF       FARG_SPI1_Write_data_+0 
	CALL        _SPI1_Write+0, 0
;soundrec.c,129 :: 		spiWrite(CRCbits);
	MOVF        FARG_command_CRCbits+0, 0 
	MOVWF       FARG_SPI1_Write_data_+0 
	CALL        _SPI1_Write+0, 0
;soundrec.c,130 :: 		spiReadData = spiRead();
	MOVLW       255
	MOVWF       FARG_SPI1_Read_buffer+0 
	CALL        _SPI1_Read+0, 0
	MOVF        R0, 0 
	MOVWF       _spiReadData+0 
;soundrec.c,131 :: 		}
L_end_command:
	RETURN      0
; end of _command

_mmcInit:

;soundrec.c,134 :: 		mmcInit(void)
;soundrec.c,138 :: 		_SPI_CLK_IDLE_LOW, _SPI_LOW_2_HIGH);
	MOVLW       2
	MOVWF       FARG_SPI1_Init_Advanced_master+0 
	CLRF        FARG_SPI1_Init_Advanced_data_sample+0 
	CLRF        FARG_SPI1_Init_Advanced_clock_idle+0 
	MOVLW       1
	MOVWF       FARG_SPI1_Init_Advanced_transmit_edge+0 
	CALL        _SPI1_Init_Advanced+0, 0
;soundrec.c,139 :: 		Delay_ms(2);
	MOVLW       13
	MOVWF       R12, 0
	MOVLW       251
	MOVWF       R13, 0
L_mmcInit9:
	DECFSZ      R13, 1, 1
	BRA         L_mmcInit9
	DECFSZ      R12, 1, 1
	BRA         L_mmcInit9
	NOP
	NOP
;soundrec.c,140 :: 		Mmc_Chip_Select = 1;
	BSF         LATC2_bit+0, BitPos(LATC2_bit+0) 
;soundrec.c,141 :: 		UWR("CS is HIGH!");
	MOVLW       ?lstr3_soundrec+0
	MOVWF       FARG_UART_Write_Text_uart_text+0 
	MOVLW       hi_addr(?lstr3_soundrec+0)
	MOVWF       FARG_UART_Write_Text_uart_text+1 
	CALL        _UART_Write_Text+0, 0
	MOVLW       13
	MOVWF       FARG_UART_Write__data+0 
	CALL        _UART_Write+0, 0
	MOVLW       10
	MOVWF       FARG_UART_Write__data+0 
	CALL        _UART_Write+0, 0
;soundrec.c,142 :: 		for (u = 0; u < 10; u++)
	CLRF        mmcInit_u_L0+0 
L_mmcInit10:
	MOVLW       10
	SUBWF       mmcInit_u_L0+0, 0 
	BTFSC       STATUS+0, 0 
	GOTO        L_mmcInit11
;soundrec.c,144 :: 		spiWrite(0xff);
	MOVLW       255
	MOVWF       FARG_SPI1_Write_data_+0 
	CALL        _SPI1_Write+0, 0
;soundrec.c,142 :: 		for (u = 0; u < 10; u++)
	INCF        mmcInit_u_L0+0, 1 
;soundrec.c,145 :: 		}
	GOTO        L_mmcInit10
L_mmcInit11:
;soundrec.c,146 :: 		UWR("Dummy clock sent!");
	MOVLW       ?lstr4_soundrec+0
	MOVWF       FARG_UART_Write_Text_uart_text+0 
	MOVLW       hi_addr(?lstr4_soundrec+0)
	MOVWF       FARG_UART_Write_Text_uart_text+1 
	CALL        _UART_Write_Text+0, 0
	MOVLW       13
	MOVWF       FARG_UART_Write__data+0 
	CALL        _UART_Write+0, 0
	MOVLW       10
	MOVWF       FARG_UART_Write__data+0 
	CALL        _UART_Write+0, 0
;soundrec.c,147 :: 		Mmc_Chip_Select = 0;
	BCF         LATC2_bit+0, BitPos(LATC2_bit+0) 
;soundrec.c,148 :: 		UWR("CS is LOW!\n");
	MOVLW       ?lstr5_soundrec+0
	MOVWF       FARG_UART_Write_Text_uart_text+0 
	MOVLW       hi_addr(?lstr5_soundrec+0)
	MOVWF       FARG_UART_Write_Text_uart_text+1 
	CALL        _UART_Write_Text+0, 0
	MOVLW       13
	MOVWF       FARG_UART_Write__data+0 
	CALL        _UART_Write+0, 0
	MOVLW       10
	MOVWF       FARG_UART_Write__data+0 
	CALL        _UART_Write+0, 0
;soundrec.c,149 :: 		Delay_ms(1);
	MOVLW       7
	MOVWF       R12, 0
	MOVLW       125
	MOVWF       R13, 0
L_mmcInit13:
	DECFSZ      R13, 1, 1
	BRA         L_mmcInit13
	DECFSZ      R12, 1, 1
	BRA         L_mmcInit13
;soundrec.c,150 :: 		command(0, 0, 0x95);
	CLRF        FARG_command_command+0 
	CLRF        FARG_command_fourbyte_arg+0 
	CLRF        FARG_command_fourbyte_arg+1 
	CLRF        FARG_command_fourbyte_arg+2 
	CLRF        FARG_command_fourbyte_arg+3 
	MOVLW       149
	MOVWF       FARG_command_CRCbits+0 
	CALL        _command+0, 0
;soundrec.c,151 :: 		UWR("CMD0 sent!");
	MOVLW       ?lstr6_soundrec+0
	MOVWF       FARG_UART_Write_Text_uart_text+0 
	MOVLW       hi_addr(?lstr6_soundrec+0)
	MOVWF       FARG_UART_Write_Text_uart_text+1 
	CALL        _UART_Write_Text+0, 0
	MOVLW       13
	MOVWF       FARG_UART_Write__data+0 
	CALL        _UART_Write+0, 0
	MOVLW       10
	MOVWF       FARG_UART_Write__data+0 
	CALL        _UART_Write+0, 0
;soundrec.c,152 :: 		count = 0;
	CLRF        _count+0 
;soundrec.c,153 :: 		while ((spiReadData != 1) && (count < 10))
L_mmcInit14:
	MOVF        _spiReadData+0, 0 
	XORLW       1
	BTFSC       STATUS+0, 2 
	GOTO        L_mmcInit15
	MOVLW       10
	SUBWF       _count+0, 0 
	BTFSC       STATUS+0, 0 
	GOTO        L_mmcInit15
L__mmcInit105:
;soundrec.c,155 :: 		spiReadData = spiRead();
	MOVLW       255
	MOVWF       FARG_SPI1_Read_buffer+0 
	CALL        _SPI1_Read+0, 0
	MOVF        R0, 0 
	MOVWF       _spiReadData+0 
;soundrec.c,156 :: 		count++;
	MOVF        _count+0, 0 
	ADDLW       1
	MOVWF       R0 
	MOVF        R0, 0 
	MOVWF       _count+0 
;soundrec.c,157 :: 		}
	GOTO        L_mmcInit14
L_mmcInit15:
;soundrec.c,158 :: 		if (count >= 10)
	MOVLW       10
	SUBWF       _count+0, 0 
	BTFSS       STATUS+0, 0 
	GOTO        L_mmcInit18
;soundrec.c,160 :: 		UWR("CARD ERROR - CMD0");
	MOVLW       ?lstr7_soundrec+0
	MOVWF       FARG_UART_Write_Text_uart_text+0 
	MOVLW       hi_addr(?lstr7_soundrec+0)
	MOVWF       FARG_UART_Write_Text_uart_text+1 
	CALL        _UART_Write_Text+0, 0
	MOVLW       13
	MOVWF       FARG_UART_Write__data+0 
	CALL        _UART_Write+0, 0
	MOVLW       10
	MOVWF       FARG_UART_Write__data+0 
	CALL        _UART_Write+0, 0
;soundrec.c,161 :: 		while (1); // Trap the CPU
L_mmcInit19:
	GOTO        L_mmcInit19
;soundrec.c,162 :: 		}
L_mmcInit18:
;soundrec.c,163 :: 		command(1, 0, 0xff);
	MOVLW       1
	MOVWF       FARG_command_command+0 
	CLRF        FARG_command_fourbyte_arg+0 
	CLRF        FARG_command_fourbyte_arg+1 
	CLRF        FARG_command_fourbyte_arg+2 
	CLRF        FARG_command_fourbyte_arg+3 
	MOVLW       255
	MOVWF       FARG_command_CRCbits+0 
	CALL        _command+0, 0
;soundrec.c,164 :: 		count = 0;
	CLRF        _count+0 
;soundrec.c,165 :: 		while ((spiReadData != 0) && (count < 1000))
L_mmcInit21:
	MOVF        _spiReadData+0, 0 
	XORLW       0
	BTFSC       STATUS+0, 2 
	GOTO        L_mmcInit22
	MOVLW       128
	MOVWF       R0 
	MOVLW       128
	XORLW       3
	SUBWF       R0, 0 
	BTFSS       STATUS+0, 2 
	GOTO        L__mmcInit112
	MOVLW       232
	SUBWF       _count+0, 0 
L__mmcInit112:
	BTFSC       STATUS+0, 0 
	GOTO        L_mmcInit22
L__mmcInit104:
;soundrec.c,167 :: 		command(1, 0, 0xff);
	MOVLW       1
	MOVWF       FARG_command_command+0 
	CLRF        FARG_command_fourbyte_arg+0 
	CLRF        FARG_command_fourbyte_arg+1 
	CLRF        FARG_command_fourbyte_arg+2 
	CLRF        FARG_command_fourbyte_arg+3 
	MOVLW       255
	MOVWF       FARG_command_CRCbits+0 
	CALL        _command+0, 0
;soundrec.c,168 :: 		spiReadData = spiRead();
	MOVLW       255
	MOVWF       FARG_SPI1_Read_buffer+0 
	CALL        _SPI1_Read+0, 0
	MOVF        R0, 0 
	MOVWF       _spiReadData+0 
;soundrec.c,169 :: 		count++;
	MOVF        _count+0, 0 
	ADDLW       1
	MOVWF       R0 
	MOVF        R0, 0 
	MOVWF       _count+0 
;soundrec.c,170 :: 		}
	GOTO        L_mmcInit21
L_mmcInit22:
;soundrec.c,171 :: 		if (count >= 1000)
	MOVLW       128
	MOVWF       R0 
	MOVLW       128
	XORLW       3
	SUBWF       R0, 0 
	BTFSS       STATUS+0, 2 
	GOTO        L__mmcInit113
	MOVLW       232
	SUBWF       _count+0, 0 
L__mmcInit113:
	BTFSS       STATUS+0, 0 
	GOTO        L_mmcInit25
;soundrec.c,173 :: 		UWR("Card ERROR - CMD1");
	MOVLW       ?lstr8_soundrec+0
	MOVWF       FARG_UART_Write_Text_uart_text+0 
	MOVLW       hi_addr(?lstr8_soundrec+0)
	MOVWF       FARG_UART_Write_Text_uart_text+1 
	CALL        _UART_Write_Text+0, 0
	MOVLW       13
	MOVWF       FARG_UART_Write__data+0 
	CALL        _UART_Write+0, 0
	MOVLW       10
	MOVWF       FARG_UART_Write__data+0 
	CALL        _UART_Write+0, 0
;soundrec.c,174 :: 		while (1); // Trap the CPU
L_mmcInit26:
	GOTO        L_mmcInit26
;soundrec.c,175 :: 		}
L_mmcInit25:
;soundrec.c,176 :: 		command(16, 512, 0xff);
	MOVLW       16
	MOVWF       FARG_command_command+0 
	MOVLW       0
	MOVWF       FARG_command_fourbyte_arg+0 
	MOVLW       2
	MOVWF       FARG_command_fourbyte_arg+1 
	MOVLW       0
	MOVWF       FARG_command_fourbyte_arg+2 
	MOVWF       FARG_command_fourbyte_arg+3 
	MOVLW       255
	MOVWF       FARG_command_CRCbits+0 
	CALL        _command+0, 0
;soundrec.c,177 :: 		count = 0;
	CLRF        _count+0 
;soundrec.c,178 :: 		while ((spiReadData != 0) && (count < 1000))
L_mmcInit28:
	MOVF        _spiReadData+0, 0 
	XORLW       0
	BTFSC       STATUS+0, 2 
	GOTO        L_mmcInit29
	MOVLW       128
	MOVWF       R0 
	MOVLW       128
	XORLW       3
	SUBWF       R0, 0 
	BTFSS       STATUS+0, 2 
	GOTO        L__mmcInit114
	MOVLW       232
	SUBWF       _count+0, 0 
L__mmcInit114:
	BTFSC       STATUS+0, 0 
	GOTO        L_mmcInit29
L__mmcInit103:
;soundrec.c,180 :: 		spiReadData = spiRead();
	MOVLW       255
	MOVWF       FARG_SPI1_Read_buffer+0 
	CALL        _SPI1_Read+0, 0
	MOVF        R0, 0 
	MOVWF       _spiReadData+0 
;soundrec.c,181 :: 		count++;
	MOVF        _count+0, 0 
	ADDLW       1
	MOVWF       R0 
	MOVF        R0, 0 
	MOVWF       _count+0 
;soundrec.c,182 :: 		}
	GOTO        L_mmcInit28
L_mmcInit29:
;soundrec.c,183 :: 		if (count >= 1000)
	MOVLW       128
	MOVWF       R0 
	MOVLW       128
	XORLW       3
	SUBWF       R0, 0 
	BTFSS       STATUS+0, 2 
	GOTO        L__mmcInit115
	MOVLW       232
	SUBWF       _count+0, 0 
L__mmcInit115:
	BTFSS       STATUS+0, 0 
	GOTO        L_mmcInit32
;soundrec.c,185 :: 		UWR("Card error - CMD16");
	MOVLW       ?lstr9_soundrec+0
	MOVWF       FARG_UART_Write_Text_uart_text+0 
	MOVLW       hi_addr(?lstr9_soundrec+0)
	MOVWF       FARG_UART_Write_Text_uart_text+1 
	CALL        _UART_Write_Text+0, 0
	MOVLW       13
	MOVWF       FARG_UART_Write__data+0 
	CALL        _UART_Write+0, 0
	MOVLW       10
	MOVWF       FARG_UART_Write__data+0 
	CALL        _UART_Write+0, 0
;soundrec.c,186 :: 		while (1); // Trap the CPU
L_mmcInit33:
	GOTO        L_mmcInit33
;soundrec.c,187 :: 		}
L_mmcInit32:
;soundrec.c,188 :: 		UWR("MMC Detected!");
	MOVLW       ?lstr10_soundrec+0
	MOVWF       FARG_UART_Write_Text_uart_text+0 
	MOVLW       hi_addr(?lstr10_soundrec+0)
	MOVWF       FARG_UART_Write_Text_uart_text+1 
	CALL        _UART_Write_Text+0, 0
	MOVLW       13
	MOVWF       FARG_UART_Write__data+0 
	CALL        _UART_Write+0, 0
	MOVLW       10
	MOVWF       FARG_UART_Write__data+0 
	CALL        _UART_Write+0, 0
;soundrec.c,192 :: 		Delay_ms(20);
	MOVLW       130
	MOVWF       R12, 0
	MOVLW       221
	MOVWF       R13, 0
L_mmcInit35:
	DECFSZ      R13, 1, 1
	BRA         L_mmcInit35
	DECFSZ      R12, 1, 1
	BRA         L_mmcInit35
	NOP
	NOP
;soundrec.c,194 :: 		}
L_end_mmcInit:
	RETURN      0
; end of _mmcInit

_writeSingleBlock:

;soundrec.c,197 :: 		writeSingleBlock(void)
;soundrec.c,199 :: 		uint16_t g = 0;
	CLRF        writeSingleBlock_g_L0+0 
	CLRF        writeSingleBlock_g_L0+1 
;soundrec.c,200 :: 		spiWrite(0xff);
	MOVLW       255
	MOVWF       FARG_SPI1_Write_data_+0 
	CALL        _SPI1_Write+0, 0
;soundrec.c,202 :: 		spiReadData = spiRead();
	MOVLW       255
	MOVWF       FARG_SPI1_Read_buffer+0 
	CALL        _SPI1_Read+0, 0
	MOVF        R0, 0 
	MOVWF       _spiReadData+0 
;soundrec.c,203 :: 		while (spiReadData != 0xff)
L_writeSingleBlock36:
	MOVF        _spiReadData+0, 0 
	XORLW       255
	BTFSC       STATUS+0, 2 
	GOTO        L_writeSingleBlock37
;soundrec.c,205 :: 		spiReadData = spiRead();
	MOVLW       255
	MOVWF       FARG_SPI1_Read_buffer+0 
	CALL        _SPI1_Read+0, 0
	MOVF        R0, 0 
	MOVWF       _spiReadData+0 
;soundrec.c,206 :: 		UWR("Card busy!");
	MOVLW       ?lstr11_soundrec+0
	MOVWF       FARG_UART_Write_Text_uart_text+0 
	MOVLW       hi_addr(?lstr11_soundrec+0)
	MOVWF       FARG_UART_Write_Text_uart_text+1 
	CALL        _UART_Write_Text+0, 0
	MOVLW       13
	MOVWF       FARG_UART_Write__data+0 
	CALL        _UART_Write+0, 0
	MOVLW       10
	MOVWF       FARG_UART_Write__data+0 
	CALL        _UART_Write+0, 0
;soundrec.c,207 :: 		}
	GOTO        L_writeSingleBlock36
L_writeSingleBlock37:
;soundrec.c,209 :: 		command(24, arg, 0x95);
	MOVLW       24
	MOVWF       FARG_command_command+0 
	MOVF        _arg+0, 0 
	MOVWF       FARG_command_fourbyte_arg+0 
	MOVF        _arg+1, 0 
	MOVWF       FARG_command_fourbyte_arg+1 
	MOVF        _arg+2, 0 
	MOVWF       FARG_command_fourbyte_arg+2 
	MOVF        _arg+3, 0 
	MOVWF       FARG_command_fourbyte_arg+3 
	MOVLW       149
	MOVWF       FARG_command_CRCbits+0 
	CALL        _command+0, 0
;soundrec.c,211 :: 		while (spiReadData != 0)
L_writeSingleBlock38:
	MOVF        _spiReadData+0, 0 
	XORLW       0
	BTFSC       STATUS+0, 2 
	GOTO        L_writeSingleBlock39
;soundrec.c,213 :: 		spiReadData = spiRead();
	MOVLW       255
	MOVWF       FARG_SPI1_Read_buffer+0 
	CALL        _SPI1_Read+0, 0
	MOVF        R0, 0 
	MOVWF       _spiReadData+0 
;soundrec.c,214 :: 		}
	GOTO        L_writeSingleBlock38
L_writeSingleBlock39:
;soundrec.c,215 :: 		UWR("Command accepted!");
	MOVLW       ?lstr12_soundrec+0
	MOVWF       FARG_UART_Write_Text_uart_text+0 
	MOVLW       hi_addr(?lstr12_soundrec+0)
	MOVWF       FARG_UART_Write_Text_uart_text+1 
	CALL        _UART_Write_Text+0, 0
	MOVLW       13
	MOVWF       FARG_UART_Write__data+0 
	CALL        _UART_Write+0, 0
	MOVLW       10
	MOVWF       FARG_UART_Write__data+0 
	CALL        _UART_Write+0, 0
;soundrec.c,216 :: 		spiWrite(0xff);
	MOVLW       255
	MOVWF       FARG_SPI1_Write_data_+0 
	CALL        _SPI1_Write+0, 0
;soundrec.c,217 :: 		spiWrite(0xff);
	MOVLW       255
	MOVWF       FARG_SPI1_Write_data_+0 
	CALL        _SPI1_Write+0, 0
;soundrec.c,218 :: 		spiWrite(0b11111110); // Data token for CMD 24
	MOVLW       254
	MOVWF       FARG_SPI1_Write_data_+0 
	CALL        _SPI1_Write+0, 0
;soundrec.c,219 :: 		for (g = 0; g < 512; g++)
	CLRF        writeSingleBlock_g_L0+0 
	CLRF        writeSingleBlock_g_L0+1 
L_writeSingleBlock40:
	MOVLW       2
	SUBWF       writeSingleBlock_g_L0+1, 0 
	BTFSS       STATUS+0, 2 
	GOTO        L__writeSingleBlock117
	MOVLW       0
	SUBWF       writeSingleBlock_g_L0+0, 0 
L__writeSingleBlock117:
	BTFSC       STATUS+0, 0 
	GOTO        L_writeSingleBlock41
;soundrec.c,221 :: 		spiWrite(0x50);
	MOVLW       80
	MOVWF       FARG_SPI1_Write_data_+0 
	CALL        _SPI1_Write+0, 0
;soundrec.c,219 :: 		for (g = 0; g < 512; g++)
	INFSNZ      writeSingleBlock_g_L0+0, 1 
	INCF        writeSingleBlock_g_L0+1, 1 
;soundrec.c,222 :: 		}
	GOTO        L_writeSingleBlock40
L_writeSingleBlock41:
;soundrec.c,223 :: 		spiWrite(0xff);
	MOVLW       255
	MOVWF       FARG_SPI1_Write_data_+0 
	CALL        _SPI1_Write+0, 0
;soundrec.c,224 :: 		spiWrite(0xff);
	MOVLW       255
	MOVWF       FARG_SPI1_Write_data_+0 
	CALL        _SPI1_Write+0, 0
;soundrec.c,225 :: 		spiReadData = spiRead();
	MOVLW       255
	MOVWF       FARG_SPI1_Read_buffer+0 
	CALL        _SPI1_Read+0, 0
	MOVF        R0, 0 
	MOVWF       _spiReadData+0 
;soundrec.c,227 :: 		count = 0;
	CLRF        _count+0 
;soundrec.c,228 :: 		while (count < 10)
L_writeSingleBlock43:
	MOVLW       10
	SUBWF       _count+0, 0 
	BTFSC       STATUS+0, 0 
	GOTO        L_writeSingleBlock44
;soundrec.c,230 :: 		if ((spiReadData & 0b00011111) == 0x05)
	MOVLW       31
	ANDWF       _spiReadData+0, 0 
	MOVWF       R1 
	MOVF        R1, 0 
	XORLW       5
	BTFSS       STATUS+0, 2 
	GOTO        L_writeSingleBlock45
;soundrec.c,232 :: 		UWR("Data accepted!");
	MOVLW       ?lstr13_soundrec+0
	MOVWF       FARG_UART_Write_Text_uart_text+0 
	MOVLW       hi_addr(?lstr13_soundrec+0)
	MOVWF       FARG_UART_Write_Text_uart_text+1 
	CALL        _UART_Write_Text+0, 0
	MOVLW       13
	MOVWF       FARG_UART_Write__data+0 
	CALL        _UART_Write+0, 0
	MOVLW       10
	MOVWF       FARG_UART_Write__data+0 
	CALL        _UART_Write+0, 0
;soundrec.c,233 :: 		break;
	GOTO        L_writeSingleBlock44
;soundrec.c,234 :: 		}
L_writeSingleBlock45:
;soundrec.c,235 :: 		count++;
	MOVF        _count+0, 0 
	ADDLW       1
	MOVWF       R0 
	MOVF        R0, 0 
	MOVWF       _count+0 
;soundrec.c,236 :: 		}
	GOTO        L_writeSingleBlock43
L_writeSingleBlock44:
;soundrec.c,237 :: 		if (count >= 10)
	MOVLW       10
	SUBWF       _count+0, 0 
	BTFSS       STATUS+0, 0 
	GOTO        L_writeSingleBlock46
;soundrec.c,239 :: 		UWR("Data rejected!");
	MOVLW       ?lstr14_soundrec+0
	MOVWF       FARG_UART_Write_Text_uart_text+0 
	MOVLW       hi_addr(?lstr14_soundrec+0)
	MOVWF       FARG_UART_Write_Text_uart_text+1 
	CALL        _UART_Write_Text+0, 0
	MOVLW       13
	MOVWF       FARG_UART_Write__data+0 
	CALL        _UART_Write+0, 0
	MOVLW       10
	MOVWF       FARG_UART_Write__data+0 
	CALL        _UART_Write+0, 0
;soundrec.c,240 :: 		}
L_writeSingleBlock46:
;soundrec.c,241 :: 		spiReadData = spiRead();
	MOVLW       255
	MOVWF       FARG_SPI1_Read_buffer+0 
	CALL        _SPI1_Read+0, 0
	MOVF        R0, 0 
	MOVWF       _spiReadData+0 
;soundrec.c,242 :: 		while (spiReadData != 0xff)
L_writeSingleBlock47:
	MOVF        _spiReadData+0, 0 
	XORLW       255
	BTFSC       STATUS+0, 2 
	GOTO        L_writeSingleBlock48
;soundrec.c,244 :: 		spiReadData = spiRead();
	MOVLW       255
	MOVWF       FARG_SPI1_Read_buffer+0 
	CALL        _SPI1_Read+0, 0
	MOVF        R0, 0 
	MOVWF       _spiReadData+0 
;soundrec.c,245 :: 		}
	GOTO        L_writeSingleBlock47
L_writeSingleBlock48:
;soundrec.c,246 :: 		UWR("Card is idle");
	MOVLW       ?lstr15_soundrec+0
	MOVWF       FARG_UART_Write_Text_uart_text+0 
	MOVLW       hi_addr(?lstr15_soundrec+0)
	MOVWF       FARG_UART_Write_Text_uart_text+1 
	CALL        _UART_Write_Text+0, 0
	MOVLW       13
	MOVWF       FARG_UART_Write__data+0 
	CALL        _UART_Write+0, 0
	MOVLW       10
	MOVWF       FARG_UART_Write__data+0 
	CALL        _UART_Write+0, 0
;soundrec.c,247 :: 		}
L_end_writeSingleBlock:
	RETURN      0
; end of _writeSingleBlock

_readSingleBlock:

;soundrec.c,249 :: 		readSingleBlock(void)
;soundrec.c,253 :: 		spiWrite(0xff);
	MOVLW       255
	MOVWF       FARG_SPI1_Write_data_+0 
	CALL        _SPI1_Write+0, 0
;soundrec.c,254 :: 		spiReadData = spiRead();
	MOVLW       255
	MOVWF       FARG_SPI1_Read_buffer+0 
	CALL        _SPI1_Read+0, 0
	MOVF        R0, 0 
	MOVWF       _spiReadData+0 
;soundrec.c,255 :: 		while (spiReadData != 0xff)
L_readSingleBlock49:
	MOVF        _spiReadData+0, 0 
	XORLW       255
	BTFSC       STATUS+0, 2 
	GOTO        L_readSingleBlock50
;soundrec.c,257 :: 		spiReadData = spiRead();
	MOVLW       255
	MOVWF       FARG_SPI1_Read_buffer+0 
	CALL        _SPI1_Read+0, 0
	MOVF        R0, 0 
	MOVWF       _spiReadData+0 
;soundrec.c,258 :: 		UWR("Card busy!");
	MOVLW       ?lstr16_soundrec+0
	MOVWF       FARG_UART_Write_Text_uart_text+0 
	MOVLW       hi_addr(?lstr16_soundrec+0)
	MOVWF       FARG_UART_Write_Text_uart_text+1 
	CALL        _UART_Write_Text+0, 0
	MOVLW       13
	MOVWF       FARG_UART_Write__data+0 
	CALL        _UART_Write+0, 0
	MOVLW       10
	MOVWF       FARG_UART_Write__data+0 
	CALL        _UART_Write+0, 0
;soundrec.c,259 :: 		}
	GOTO        L_readSingleBlock49
L_readSingleBlock50:
;soundrec.c,261 :: 		command(17, arg, 0x95); // read 512 bytes from byte address 0
	MOVLW       17
	MOVWF       FARG_command_command+0 
	MOVF        _arg+0, 0 
	MOVWF       FARG_command_fourbyte_arg+0 
	MOVF        _arg+1, 0 
	MOVWF       FARG_command_fourbyte_arg+1 
	MOVF        _arg+2, 0 
	MOVWF       FARG_command_fourbyte_arg+2 
	MOVF        _arg+3, 0 
	MOVWF       FARG_command_fourbyte_arg+3 
	MOVLW       149
	MOVWF       FARG_command_CRCbits+0 
	CALL        _command+0, 0
;soundrec.c,263 :: 		while (spiReadData != 0)
L_readSingleBlock51:
	MOVF        _spiReadData+0, 0 
	XORLW       0
	BTFSC       STATUS+0, 2 
	GOTO        L_readSingleBlock52
;soundrec.c,265 :: 		spiReadData = spiRead();
	MOVLW       255
	MOVWF       FARG_SPI1_Read_buffer+0 
	CALL        _SPI1_Read+0, 0
	MOVF        R0, 0 
	MOVWF       _spiReadData+0 
;soundrec.c,266 :: 		UWR("Busy!");
	MOVLW       ?lstr17_soundrec+0
	MOVWF       FARG_UART_Write_Text_uart_text+0 
	MOVLW       hi_addr(?lstr17_soundrec+0)
	MOVWF       FARG_UART_Write_Text_uart_text+1 
	CALL        _UART_Write_Text+0, 0
	MOVLW       13
	MOVWF       FARG_UART_Write__data+0 
	CALL        _UART_Write+0, 0
	MOVLW       10
	MOVWF       FARG_UART_Write__data+0 
	CALL        _UART_Write+0, 0
;soundrec.c,267 :: 		}
	GOTO        L_readSingleBlock51
L_readSingleBlock52:
;soundrec.c,268 :: 		UWR("CMD accepted!");
	MOVLW       ?lstr18_soundrec+0
	MOVWF       FARG_UART_Write_Text_uart_text+0 
	MOVLW       hi_addr(?lstr18_soundrec+0)
	MOVWF       FARG_UART_Write_Text_uart_text+1 
	CALL        _UART_Write_Text+0, 0
	MOVLW       13
	MOVWF       FARG_UART_Write__data+0 
	CALL        _UART_Write+0, 0
	MOVLW       10
	MOVWF       FARG_UART_Write__data+0 
	CALL        _UART_Write+0, 0
;soundrec.c,270 :: 		while (spiReadData != 0xfe)
L_readSingleBlock53:
	MOVF        _spiReadData+0, 0 
	XORLW       254
	BTFSC       STATUS+0, 2 
	GOTO        L_readSingleBlock54
;soundrec.c,272 :: 		spiReadData = spiRead();
	MOVLW       255
	MOVWF       FARG_SPI1_Read_buffer+0 
	CALL        _SPI1_Read+0, 0
	MOVF        R0, 0 
	MOVWF       _spiReadData+0 
;soundrec.c,273 :: 		}
	GOTO        L_readSingleBlock53
L_readSingleBlock54:
;soundrec.c,274 :: 		UWR("Token received!");
	MOVLW       ?lstr19_soundrec+0
	MOVWF       FARG_UART_Write_Text_uart_text+0 
	MOVLW       hi_addr(?lstr19_soundrec+0)
	MOVWF       FARG_UART_Write_Text_uart_text+1 
	CALL        _UART_Write_Text+0, 0
	MOVLW       13
	MOVWF       FARG_UART_Write__data+0 
	CALL        _UART_Write+0, 0
	MOVLW       10
	MOVWF       FARG_UART_Write__data+0 
	CALL        _UART_Write+0, 0
;soundrec.c,276 :: 		for (numOfBytes = 0; numOfBytes < 512; numOfBytes++)
	CLRF        readSingleBlock_numOfBytes_L0+0 
	CLRF        readSingleBlock_numOfBytes_L0+1 
L_readSingleBlock55:
	MOVLW       2
	SUBWF       readSingleBlock_numOfBytes_L0+1, 0 
	BTFSS       STATUS+0, 2 
	GOTO        L__readSingleBlock119
	MOVLW       0
	SUBWF       readSingleBlock_numOfBytes_L0+0, 0 
L__readSingleBlock119:
	BTFSC       STATUS+0, 0 
	GOTO        L_readSingleBlock56
;soundrec.c,278 :: 		spiReadData = spiRead();
	MOVLW       255
	MOVWF       FARG_SPI1_Read_buffer+0 
	CALL        _SPI1_Read+0, 0
	MOVF        R0, 0 
	MOVWF       _spiReadData+0 
;soundrec.c,279 :: 		IntToStr(spiReadData, strData);
	MOVF        _spiReadData+0, 0 
	MOVWF       FARG_IntToStr_input+0 
	MOVLW       0
	MOVWF       FARG_IntToStr_input+1 
	MOVLW       readSingleBlock_strData_L0+0
	MOVWF       FARG_IntToStr_output+0 
	MOVLW       hi_addr(readSingleBlock_strData_L0+0)
	MOVWF       FARG_IntToStr_output+1 
	CALL        _IntToStr+0, 0
;soundrec.c,280 :: 		UWR(strData);
	MOVLW       readSingleBlock_strData_L0+0
	MOVWF       FARG_UART_Write_Text_uart_text+0 
	MOVLW       hi_addr(readSingleBlock_strData_L0+0)
	MOVWF       FARG_UART_Write_Text_uart_text+1 
	CALL        _UART_Write_Text+0, 0
	MOVLW       13
	MOVWF       FARG_UART_Write__data+0 
	CALL        _UART_Write+0, 0
	MOVLW       10
	MOVWF       FARG_UART_Write__data+0 
	CALL        _UART_Write+0, 0
;soundrec.c,281 :: 		DACOUT = spiReadData;
	MOVF        _spiReadData+0, 0 
	MOVWF       LATB+0 
;soundrec.c,282 :: 		Delay_ms(2);
	MOVLW       13
	MOVWF       R12, 0
	MOVLW       251
	MOVWF       R13, 0
L_readSingleBlock58:
	DECFSZ      R13, 1, 1
	BRA         L_readSingleBlock58
	DECFSZ      R12, 1, 1
	BRA         L_readSingleBlock58
	NOP
	NOP
;soundrec.c,276 :: 		for (numOfBytes = 0; numOfBytes < 512; numOfBytes++)
	MOVLW       1
	ADDWF       readSingleBlock_numOfBytes_L0+0, 0 
	MOVWF       R0 
	MOVLW       0
	ADDWFC      readSingleBlock_numOfBytes_L0+1, 0 
	MOVWF       R1 
	MOVF        R0, 0 
	MOVWF       readSingleBlock_numOfBytes_L0+0 
	MOVF        R1, 0 
	MOVWF       readSingleBlock_numOfBytes_L0+1 
;soundrec.c,283 :: 		}
	GOTO        L_readSingleBlock55
L_readSingleBlock56:
;soundrec.c,285 :: 		spiReadData = spiRead();
	MOVLW       255
	MOVWF       FARG_SPI1_Read_buffer+0 
	CALL        _SPI1_Read+0, 0
	MOVF        R0, 0 
	MOVWF       _spiReadData+0 
;soundrec.c,286 :: 		spiReadData = spiRead();
	MOVLW       255
	MOVWF       FARG_SPI1_Read_buffer+0 
	CALL        _SPI1_Read+0, 0
	MOVF        R0, 0 
	MOVWF       _spiReadData+0 
;soundrec.c,287 :: 		UWR("DONE!");
	MOVLW       ?lstr20_soundrec+0
	MOVWF       FARG_UART_Write_Text_uart_text+0 
	MOVLW       hi_addr(?lstr20_soundrec+0)
	MOVWF       FARG_UART_Write_Text_uart_text+1 
	CALL        _UART_Write_Text+0, 0
	MOVLW       13
	MOVWF       FARG_UART_Write__data+0 
	CALL        _UART_Write+0, 0
	MOVLW       10
	MOVWF       FARG_UART_Write__data+0 
	CALL        _UART_Write+0, 0
;soundrec.c,288 :: 		}
L_end_readSingleBlock:
	RETURN      0
; end of _readSingleBlock

_writeMultipleBlock:

;soundrec.c,291 :: 		writeMultipleBlock(void)
;soundrec.c,293 :: 		spiWrite(0xff);
	MOVLW       255
	MOVWF       FARG_SPI1_Write_data_+0 
	CALL        _SPI1_Write+0, 0
;soundrec.c,294 :: 		spiReadData = spiRead();
	MOVLW       255
	MOVWF       FARG_SPI1_Read_buffer+0 
	CALL        _SPI1_Read+0, 0
	MOVF        R0, 0 
	MOVWF       _spiReadData+0 
;soundrec.c,295 :: 		while (spiReadData != 0xff);
L_writeMultipleBlock59:
	MOVF        _spiReadData+0, 0 
	XORLW       255
	BTFSC       STATUS+0, 2 
	GOTO        L_writeMultipleBlock60
	GOTO        L_writeMultipleBlock59
L_writeMultipleBlock60:
;soundrec.c,297 :: 		spiReadData = spiRead();
	MOVLW       255
	MOVWF       FARG_SPI1_Read_buffer+0 
	CALL        _SPI1_Read+0, 0
	MOVF        R0, 0 
	MOVWF       _spiReadData+0 
;soundrec.c,299 :: 		UWR("Card ready!")
	MOVLW       ?lstr21_soundrec+0
	MOVWF       FARG_UART_Write_Text_uart_text+0 
	MOVLW       hi_addr(?lstr21_soundrec+0)
	MOVWF       FARG_UART_Write_Text_uart_text+1 
	CALL        _UART_Write_Text+0, 0
	MOVLW       13
	MOVWF       FARG_UART_Write__data+0 
	CALL        _UART_Write+0, 0
	MOVLW       10
	MOVWF       FARG_UART_Write__data+0 
	CALL        _UART_Write+0, 0
;soundrec.c,300 :: 		while (1); // Trap the CPU
L_writeMultipleBlock61:
	GOTO        L_writeMultipleBlock61
;soundrec.c,301 :: 		}
L_end_writeMultipleBlock:
	RETURN      0
; end of _writeMultipleBlock

_hamghi:

;soundrec.c,305 :: 		void hamghi(void)
;soundrec.c,309 :: 		for(i=0; i<512; i++)
	CLRF        hamghi_i_L0+0 
	CLRF        hamghi_i_L0+1 
L_hamghi63:
	MOVLW       2
	SUBWF       hamghi_i_L0+1, 0 
	BTFSS       STATUS+0, 2 
	GOTO        L__hamghi122
	MOVLW       0
	SUBWF       hamghi_i_L0+0, 0 
L__hamghi122:
	BTFSC       STATUS+0, 0 
	GOTO        L_hamghi64
;soundrec.c,311 :: 		TP0 = 1;
	BSF         LATC0_bit+0, BitPos(LATC0_bit+0) 
;soundrec.c,312 :: 		Delay_us(15);
	MOVLW       24
	MOVWF       R13, 0
L_hamghi66:
	DECFSZ      R13, 1, 1
	BRA         L_hamghi66
	NOP
	NOP
;soundrec.c,313 :: 		TP0 = 0;
	BCF         LATC0_bit+0, BitPos(LATC0_bit+0) 
;soundrec.c,314 :: 		a[i] =  adcRead();
	MOVLW       hamghi_a_L0+0
	ADDWF       hamghi_i_L0+0, 0 
	MOVWF       FLOC__hamghi+0 
	MOVLW       hi_addr(hamghi_a_L0+0)
	ADDWFC      hamghi_i_L0+1, 0 
	MOVWF       FLOC__hamghi+1 
	CALL        _adcRead+0, 0
	MOVFF       FLOC__hamghi+0, FSR1
	MOVFF       FLOC__hamghi+1, FSR1H
	MOVF        R0, 0 
	MOVWF       POSTINC1+0 
;soundrec.c,309 :: 		for(i=0; i<512; i++)
	INFSNZ      hamghi_i_L0+0, 1 
	INCF        hamghi_i_L0+1, 1 
;soundrec.c,317 :: 		}
	GOTO        L_hamghi63
L_hamghi64:
;soundrec.c,319 :: 		error = MMC_Write_Sector(t, a);
	MOVF        _t+0, 0 
	MOVWF       FARG_Mmc_Write_Sector_sector+0 
	MOVF        _t+1, 0 
	MOVWF       FARG_Mmc_Write_Sector_sector+1 
	MOVLW       0
	MOVWF       FARG_Mmc_Write_Sector_sector+2 
	MOVWF       FARG_Mmc_Write_Sector_sector+3 
	MOVLW       hamghi_a_L0+0
	MOVWF       FARG_Mmc_Write_Sector_dbuff+0 
	MOVLW       hi_addr(hamghi_a_L0+0)
	MOVWF       FARG_Mmc_Write_Sector_dbuff+1 
	CALL        _Mmc_Write_Sector+0, 0
	MOVF        R0, 0 
	MOVWF       _error+0 
;soundrec.c,320 :: 		if (error == 1)
	MOVF        _error+0, 0 
	XORLW       1
	BTFSS       STATUS+0, 2 
	GOTO        L_hamghi67
;soundrec.c,322 :: 		UWR("Command error!");
	MOVLW       ?lstr22_soundrec+0
	MOVWF       FARG_UART_Write_Text_uart_text+0 
	MOVLW       hi_addr(?lstr22_soundrec+0)
	MOVWF       FARG_UART_Write_Text_uart_text+1 
	CALL        _UART_Write_Text+0, 0
	MOVLW       13
	MOVWF       FARG_UART_Write__data+0 
	CALL        _UART_Write+0, 0
	MOVLW       10
	MOVWF       FARG_UART_Write__data+0 
	CALL        _UART_Write+0, 0
;soundrec.c,323 :: 		}
	GOTO        L_hamghi68
L_hamghi67:
;soundrec.c,324 :: 		else if (error == 2)
	MOVF        _error+0, 0 
	XORLW       2
	BTFSS       STATUS+0, 2 
	GOTO        L_hamghi69
;soundrec.c,326 :: 		UWR("Write error!");
	MOVLW       ?lstr23_soundrec+0
	MOVWF       FARG_UART_Write_Text_uart_text+0 
	MOVLW       hi_addr(?lstr23_soundrec+0)
	MOVWF       FARG_UART_Write_Text_uart_text+1 
	CALL        _UART_Write_Text+0, 0
	MOVLW       13
	MOVWF       FARG_UART_Write__data+0 
	CALL        _UART_Write+0, 0
	MOVLW       10
	MOVWF       FARG_UART_Write__data+0 
	CALL        _UART_Write+0, 0
;soundrec.c,327 :: 		}
L_hamghi69:
L_hamghi68:
;soundrec.c,328 :: 		t++;
	MOVLW       1
	ADDWF       _t+0, 0 
	MOVWF       R0 
	MOVLW       0
	ADDWFC      _t+1, 0 
	MOVWF       R1 
	MOVF        R0, 0 
	MOVWF       _t+0 
	MOVF        R1, 0 
	MOVWF       _t+1 
;soundrec.c,329 :: 		}
L_end_hamghi:
	RETURN      0
; end of _hamghi

_hamdoc:

;soundrec.c,332 :: 		void hamdoc()
;soundrec.c,337 :: 		if (Mmc_Read_Sector(t, a))
	MOVF        _t+0, 0 
	MOVWF       FARG_Mmc_Read_Sector_sector+0 
	MOVF        _t+1, 0 
	MOVWF       FARG_Mmc_Read_Sector_sector+1 
	MOVLW       0
	MOVWF       FARG_Mmc_Read_Sector_sector+2 
	MOVWF       FARG_Mmc_Read_Sector_sector+3 
	MOVLW       hamdoc_a_L0+0
	MOVWF       FARG_Mmc_Read_Sector_dbuff+0 
	MOVLW       hi_addr(hamdoc_a_L0+0)
	MOVWF       FARG_Mmc_Read_Sector_dbuff+1 
	CALL        _Mmc_Read_Sector+0, 0
	MOVF        R0, 1 
	BTFSC       STATUS+0, 2 
	GOTO        L_hamdoc70
;soundrec.c,339 :: 		UWR("Read error!");
	MOVLW       ?lstr24_soundrec+0
	MOVWF       FARG_UART_Write_Text_uart_text+0 
	MOVLW       hi_addr(?lstr24_soundrec+0)
	MOVWF       FARG_UART_Write_Text_uart_text+1 
	CALL        _UART_Write_Text+0, 0
	MOVLW       13
	MOVWF       FARG_UART_Write__data+0 
	CALL        _UART_Write+0, 0
	MOVLW       10
	MOVWF       FARG_UART_Write__data+0 
	CALL        _UART_Write+0, 0
;soundrec.c,340 :: 		}
L_hamdoc70:
;soundrec.c,341 :: 		for(i=0; i< 512; i++)
	CLRF        hamdoc_i_L0+0 
	CLRF        hamdoc_i_L0+1 
L_hamdoc71:
	MOVLW       2
	SUBWF       hamdoc_i_L0+1, 0 
	BTFSS       STATUS+0, 2 
	GOTO        L__hamdoc124
	MOVLW       0
	SUBWF       hamdoc_i_L0+0, 0 
L__hamdoc124:
	BTFSC       STATUS+0, 0 
	GOTO        L_hamdoc72
;soundrec.c,343 :: 		DACOUT = a[i];
	MOVLW       hamdoc_a_L0+0
	ADDWF       hamdoc_i_L0+0, 0 
	MOVWF       FSR0 
	MOVLW       hi_addr(hamdoc_a_L0+0)
	ADDWFC      hamdoc_i_L0+1, 0 
	MOVWF       FSR0H 
	MOVF        POSTINC0+0, 0 
	MOVWF       LATB+0 
;soundrec.c,345 :: 		Delay_us(25);
	MOVLW       41
	MOVWF       R13, 0
L_hamdoc74:
	DECFSZ      R13, 1, 1
	BRA         L_hamdoc74
	NOP
;soundrec.c,341 :: 		for(i=0; i< 512; i++)
	INFSNZ      hamdoc_i_L0+0, 1 
	INCF        hamdoc_i_L0+1, 1 
;soundrec.c,346 :: 		}
	GOTO        L_hamdoc71
L_hamdoc72:
;soundrec.c,347 :: 		t++;
	MOVLW       1
	ADDWF       _t+0, 0 
	MOVWF       R0 
	MOVLW       0
	ADDWFC      _t+1, 0 
	MOVWF       R1 
	MOVF        R0, 0 
	MOVWF       _t+0 
	MOVF        R1, 0 
	MOVWF       _t+1 
;soundrec.c,348 :: 		}
L_end_hamdoc:
	RETURN      0
; end of _hamdoc

_hamcaidat:

;soundrec.c,350 :: 		unsigned int hamcaidat()
;soundrec.c,352 :: 		Lcd_Cmd(_LCD_CLEAR);
	MOVLW       1
	MOVWF       FARG_Lcd_Cmd_out_char+0 
	CALL        _Lcd_Cmd+0, 0
;soundrec.c,353 :: 		Lcd_Cmd(_LCD_CURSOR_OFF);
	MOVLW       12
	MOVWF       FARG_Lcd_Cmd_out_char+0 
	CALL        _Lcd_Cmd+0, 0
;soundrec.c,354 :: 		while (1)
L_hamcaidat75:
;soundrec.c,356 :: 		if(SLCT==0)
	BTFSC       RD2_bit+0, BitPos(RD2_bit+0) 
	GOTO        L_hamcaidat77
;soundrec.c,358 :: 		Delay_ms(500);
	MOVLW       13
	MOVWF       R11, 0
	MOVLW       175
	MOVWF       R12, 0
	MOVLW       182
	MOVWF       R13, 0
L_hamcaidat78:
	DECFSZ      R13, 1, 1
	BRA         L_hamcaidat78
	DECFSZ      R12, 1, 1
	BRA         L_hamcaidat78
	DECFSZ      R11, 1, 1
	BRA         L_hamcaidat78
	NOP
;soundrec.c,359 :: 		mode++;
	MOVLW       1
	ADDWF       _mode+0, 0 
	MOVWF       R0 
	MOVLW       0
	ADDWFC      _mode+1, 0 
	MOVWF       R1 
	MOVF        R0, 0 
	MOVWF       _mode+0 
	MOVF        R1, 0 
	MOVWF       _mode+1 
;soundrec.c,360 :: 		if(mode==3)mode=1;
	MOVLW       0
	XORWF       _mode+1, 0 
	BTFSS       STATUS+0, 2 
	GOTO        L__hamcaidat126
	MOVLW       3
	XORWF       _mode+0, 0 
L__hamcaidat126:
	BTFSS       STATUS+0, 2 
	GOTO        L_hamcaidat79
	MOVLW       1
	MOVWF       _mode+0 
	MOVLW       0
	MOVWF       _mode+1 
L_hamcaidat79:
;soundrec.c,362 :: 		}
L_hamcaidat77:
;soundrec.c,365 :: 		if (mode == 1) UWR("Record");
	MOVLW       0
	XORWF       _mode+1, 0 
	BTFSS       STATUS+0, 2 
	GOTO        L__hamcaidat127
	MOVLW       1
	XORWF       _mode+0, 0 
L__hamcaidat127:
	BTFSS       STATUS+0, 2 
	GOTO        L_hamcaidat80
	MOVLW       ?lstr25_soundrec+0
	MOVWF       FARG_UART_Write_Text_uart_text+0 
	MOVLW       hi_addr(?lstr25_soundrec+0)
	MOVWF       FARG_UART_Write_Text_uart_text+1 
	CALL        _UART_Write_Text+0, 0
L_hamcaidat80:
	MOVLW       13
	MOVWF       FARG_UART_Write__data+0 
	CALL        _UART_Write+0, 0
	MOVLW       10
	MOVWF       FARG_UART_Write__data+0 
	CALL        _UART_Write+0, 0
;soundrec.c,366 :: 		if (mode == 2) UWR("Play");
	MOVLW       0
	XORWF       _mode+1, 0 
	BTFSS       STATUS+0, 2 
	GOTO        L__hamcaidat128
	MOVLW       2
	XORWF       _mode+0, 0 
L__hamcaidat128:
	BTFSS       STATUS+0, 2 
	GOTO        L_hamcaidat81
	MOVLW       ?lstr26_soundrec+0
	MOVWF       FARG_UART_Write_Text_uart_text+0 
	MOVLW       hi_addr(?lstr26_soundrec+0)
	MOVWF       FARG_UART_Write_Text_uart_text+1 
	CALL        _UART_Write_Text+0, 0
L_hamcaidat81:
	MOVLW       13
	MOVWF       FARG_UART_Write__data+0 
	CALL        _UART_Write+0, 0
	MOVLW       10
	MOVWF       FARG_UART_Write__data+0 
	CALL        _UART_Write+0, 0
;soundrec.c,367 :: 		if(OK==0)
	BTFSC       RD3_bit+0, BitPos(RD3_bit+0) 
	GOTO        L_hamcaidat82
;soundrec.c,370 :: 		return mode;
	MOVF        _mode+0, 0 
	MOVWF       R0 
	MOVF        _mode+1, 0 
	MOVWF       R1 
	GOTO        L_end_hamcaidat
;soundrec.c,372 :: 		}
L_hamcaidat82:
;soundrec.c,373 :: 		}
	GOTO        L_hamcaidat75
;soundrec.c,374 :: 		}
L_end_hamcaidat:
	RETURN      0
; end of _hamcaidat

_main:

;soundrec.c,376 :: 		void main()
;soundrec.c,383 :: 		ADCON1 |= 0x0e; // AIN0 as analog input
	MOVLW       14
	IORWF       ADCON1+0, 1 
;soundrec.c,384 :: 		ADCON2 |= 0x2d; // 12 Tad and FOSC/16
	MOVLW       45
	IORWF       ADCON2+0, 1 
;soundrec.c,385 :: 		ADFM_bit = 0; // Left justified
	BCF         ADFM_bit+0, BitPos(ADFM_bit+0) 
;soundrec.c,386 :: 		ADON_bit = 1; // Enable ADC module
	BSF         ADON_bit+0, BitPos(ADON_bit+0) 
;soundrec.c,387 :: 		Delay_ms(100);
	MOVLW       3
	MOVWF       R11, 0
	MOVLW       138
	MOVWF       R12, 0
	MOVLW       85
	MOVWF       R13, 0
L_main83:
	DECFSZ      R13, 1, 1
	BRA         L_main83
	DECFSZ      R12, 1, 1
	BRA         L_main83
	DECFSZ      R11, 1, 1
	BRA         L_main83
	NOP
	NOP
;soundrec.c,390 :: 		TRISD=0xf3;
	MOVLW       243
	MOVWF       TRISD+0 
;soundrec.c,391 :: 		TRISA2_bit=1;
	BSF         TRISA2_bit+0, BitPos(TRISA2_bit+0) 
;soundrec.c,392 :: 		TRISD2_bit=1;
	BSF         TRISD2_bit+0, BitPos(TRISD2_bit+0) 
;soundrec.c,393 :: 		TRISD3_bit=1;
	BSF         TRISD3_bit+0, BitPos(TRISD3_bit+0) 
;soundrec.c,394 :: 		TRISB=0;
	CLRF        TRISB+0 
;soundrec.c,395 :: 		TRISC = 0x00;
	CLRF        TRISC+0 
;soundrec.c,398 :: 		UART1_Init(9600);
	BSF         BAUDCON+0, 3, 0
	MOVLW       2
	MOVWF       SPBRGH+0 
	MOVLW       8
	MOVWF       SPBRG+0 
	BSF         TXSTA+0, 2, 0
	CALL        _UART1_Init+0, 0
;soundrec.c,399 :: 		mmcInit();
	CALL        _mmcInit+0, 0
;soundrec.c,401 :: 		for ( ; ; )        // Repeats forever
L_main84:
;soundrec.c,404 :: 		while (SLCT != 0)        // Wait until SELECT pressed
L_main87:
	BTFSS       RD2_bit+0, BitPos(RD2_bit+0) 
	GOTO        L_main88
;soundrec.c,406 :: 		}
	GOTO        L_main87
L_main88:
;soundrec.c,411 :: 		UWR("Select a Menu");
	MOVLW       ?lstr27_soundrec+0
	MOVWF       FARG_UART_Write_Text_uart_text+0 
	MOVLW       hi_addr(?lstr27_soundrec+0)
	MOVWF       FARG_UART_Write_Text_uart_text+1 
	CALL        _UART_Write_Text+0, 0
	MOVLW       13
	MOVWF       FARG_UART_Write__data+0 
	CALL        _UART_Write+0, 0
	MOVLW       10
	MOVWF       FARG_UART_Write__data+0 
	CALL        _UART_Write+0, 0
;soundrec.c,412 :: 		while (OK)
L_main89:
	BTFSS       RD3_bit+0, BitPos(RD3_bit+0) 
	GOTO        L_main90
;soundrec.c,414 :: 		if (!SLCT)
	BTFSC       RD2_bit+0, BitPos(RD2_bit+0) 
	GOTO        L_main91
;soundrec.c,416 :: 		Delay_ms(300);
	MOVLW       8
	MOVWF       R11, 0
	MOVLW       157
	MOVWF       R12, 0
	MOVLW       5
	MOVWF       R13, 0
L_main92:
	DECFSZ      R13, 1, 1
	BRA         L_main92
	DECFSZ      R12, 1, 1
	BRA         L_main92
	DECFSZ      R11, 1, 1
	BRA         L_main92
	NOP
	NOP
;soundrec.c,417 :: 		mode++;
	MOVLW       1
	ADDWF       _mode+0, 0 
	MOVWF       R0 
	MOVLW       0
	ADDWFC      _mode+1, 0 
	MOVWF       R1 
	MOVF        R0, 0 
	MOVWF       _mode+0 
	MOVF        R1, 0 
	MOVWF       _mode+1 
;soundrec.c,418 :: 		if (mode == 3)
	MOVLW       0
	XORWF       _mode+1, 0 
	BTFSS       STATUS+0, 2 
	GOTO        L__main130
	MOVLW       3
	XORWF       _mode+0, 0 
L__main130:
	BTFSS       STATUS+0, 2 
	GOTO        L_main93
;soundrec.c,420 :: 		mode = 1;
	MOVLW       1
	MOVWF       _mode+0 
	MOVLW       0
	MOVWF       _mode+1 
;soundrec.c,421 :: 		}
L_main93:
;soundrec.c,422 :: 		}
L_main91:
;soundrec.c,424 :: 		if ((mode == 1) & (lastMode != mode))
	MOVLW       0
	XORWF       _mode+1, 0 
	BTFSS       STATUS+0, 2 
	GOTO        L__main131
	MOVLW       1
	XORWF       _mode+0, 0 
L__main131:
	MOVLW       1
	BTFSS       STATUS+0, 2 
	MOVLW       0
	MOVWF       R1 
	MOVLW       0
	XORWF       _mode+1, 0 
	BTFSS       STATUS+0, 2 
	GOTO        L__main132
	MOVF        _mode+0, 0 
	XORWF       main_lastMode_L0+0, 0 
L__main132:
	MOVLW       0
	BTFSS       STATUS+0, 2 
	MOVLW       1
	MOVWF       R0 
	MOVF        R1, 0 
	ANDWF       R0, 1 
	BTFSC       STATUS+0, 2 
	GOTO        L_main94
;soundrec.c,427 :: 		UWR("Record\n");
	MOVLW       ?lstr28_soundrec+0
	MOVWF       FARG_UART_Write_Text_uart_text+0 
	MOVLW       hi_addr(?lstr28_soundrec+0)
	MOVWF       FARG_UART_Write_Text_uart_text+1 
	CALL        _UART_Write_Text+0, 0
	MOVLW       13
	MOVWF       FARG_UART_Write__data+0 
	CALL        _UART_Write+0, 0
	MOVLW       10
	MOVWF       FARG_UART_Write__data+0 
	CALL        _UART_Write+0, 0
;soundrec.c,428 :: 		}
	GOTO        L_main95
L_main94:
;soundrec.c,429 :: 		else if ((mode == 2) & (lastMode != mode))
	MOVLW       0
	XORWF       _mode+1, 0 
	BTFSS       STATUS+0, 2 
	GOTO        L__main133
	MOVLW       2
	XORWF       _mode+0, 0 
L__main133:
	MOVLW       1
	BTFSS       STATUS+0, 2 
	MOVLW       0
	MOVWF       R1 
	MOVLW       0
	XORWF       _mode+1, 0 
	BTFSS       STATUS+0, 2 
	GOTO        L__main134
	MOVF        _mode+0, 0 
	XORWF       main_lastMode_L0+0, 0 
L__main134:
	MOVLW       0
	BTFSS       STATUS+0, 2 
	MOVLW       1
	MOVWF       R0 
	MOVF        R1, 0 
	ANDWF       R0, 1 
	BTFSC       STATUS+0, 2 
	GOTO        L_main96
;soundrec.c,432 :: 		UWR("Play\n");
	MOVLW       ?lstr29_soundrec+0
	MOVWF       FARG_UART_Write_Text_uart_text+0 
	MOVLW       hi_addr(?lstr29_soundrec+0)
	MOVWF       FARG_UART_Write_Text_uart_text+1 
	CALL        _UART_Write_Text+0, 0
	MOVLW       13
	MOVWF       FARG_UART_Write__data+0 
	CALL        _UART_Write+0, 0
	MOVLW       10
	MOVWF       FARG_UART_Write__data+0 
	CALL        _UART_Write+0, 0
;soundrec.c,433 :: 		}
L_main96:
L_main95:
;soundrec.c,438 :: 		lastMode = mode;
	MOVF        _mode+0, 0 
	MOVWF       main_lastMode_L0+0 
;soundrec.c,439 :: 		}
	GOTO        L_main89
L_main90:
;soundrec.c,443 :: 		if (mode == 1)
	MOVLW       0
	XORWF       _mode+1, 0 
	BTFSS       STATUS+0, 2 
	GOTO        L__main135
	MOVLW       1
	XORWF       _mode+0, 0 
L__main135:
	BTFSS       STATUS+0, 2 
	GOTO        L_main97
;soundrec.c,445 :: 		t = 0;
	CLRF        _t+0 
	CLRF        _t+1 
;soundrec.c,446 :: 		UWR("Writing");
	MOVLW       ?lstr30_soundrec+0
	MOVWF       FARG_UART_Write_Text_uart_text+0 
	MOVLW       hi_addr(?lstr30_soundrec+0)
	MOVWF       FARG_UART_Write_Text_uart_text+1 
	CALL        _UART_Write_Text+0, 0
	MOVLW       13
	MOVWF       FARG_UART_Write__data+0 
	CALL        _UART_Write+0, 0
	MOVLW       10
	MOVWF       FARG_UART_Write__data+0 
	CALL        _UART_Write+0, 0
;soundrec.c,447 :: 		PORTB = 0x00;
	CLRF        PORTB+0 
;soundrec.c,449 :: 		writeMultipleBlock();
	CALL        _writeMultipleBlock+0, 0
;soundrec.c,450 :: 		}
L_main97:
;soundrec.c,452 :: 		if (mode == 2)
	MOVLW       0
	XORWF       _mode+1, 0 
	BTFSS       STATUS+0, 2 
	GOTO        L__main136
	MOVLW       2
	XORWF       _mode+0, 0 
L__main136:
	BTFSS       STATUS+0, 2 
	GOTO        L_main98
;soundrec.c,456 :: 		UWR("Reading");
	MOVLW       ?lstr31_soundrec+0
	MOVWF       FARG_UART_Write_Text_uart_text+0 
	MOVLW       hi_addr(?lstr31_soundrec+0)
	MOVWF       FARG_UART_Write_Text_uart_text+1 
	CALL        _UART_Write_Text+0, 0
	MOVLW       13
	MOVWF       FARG_UART_Write__data+0 
	CALL        _UART_Write+0, 0
	MOVLW       10
	MOVWF       FARG_UART_Write__data+0 
	CALL        _UART_Write+0, 0
;soundrec.c,457 :: 		t = 0;
	CLRF        _t+0 
	CLRF        _t+1 
;soundrec.c,458 :: 		readSingleBlock();
	CALL        _readSingleBlock+0, 0
;soundrec.c,459 :: 		while (SLCT && OK)
L_main99:
	BTFSS       RD2_bit+0, BitPos(RD2_bit+0) 
	GOTO        L_main100
	BTFSS       RD3_bit+0, BitPos(RD3_bit+0) 
	GOTO        L_main100
L__main106:
;soundrec.c,461 :: 		}
	GOTO        L_main99
L_main100:
;soundrec.c,462 :: 		}
L_main98:
;soundrec.c,464 :: 		}
	GOTO        L_main84
;soundrec.c,465 :: 		}
L_end_main:
	GOTO        $+0
; end of _main
